target datalayout = "e-m:e-p270:32:32-p271:32:32-p272:64:64-i64:64-i128:128-f80:128-n8:16:32:64-S128"
target triple = "x86_64-pc-linux-gnu"

%struct.AVIOInterruptCB = type { ptr, ptr }
%struct.Muxer = type { %struct.OutputFile, [32 x i8], ptr, ptr, i32, ptr, i32, ptr, ptr, i64, i64, i32, ptr, ptr }
%struct.OutputFile = type { ptr, i32, ptr, ptr, i32, i64, i64, i32 }
%struct.AVFormatContext = type { ptr, ptr, ptr, ptr, ptr, i32, i32, ptr, i32, ptr, i32, ptr, ptr, i64, i64, i64, i32, i32, i32, i64, i64, ptr, i32, i32, ptr, i32, i32, i32, i32, ptr, i64, i32, i32, %struct.AVIOInterruptCB, i32, i32, i32, i32, i64, i32, i32, i32, i32, i32, i32, i32, i32, i32, i32, i32, i32, i64, i32, i32, i32, i32, i32, ptr, ptr, ptr, ptr, i32, ptr, ptr, ptr, ptr, i32, ptr, ptr, i64, ptr, ptr, ptr, i64 }
%struct.AVOutputFormat = type { ptr, ptr, ptr, ptr, i32, i32, i32, i32, ptr, ptr }
%struct.AVRational = type { i32, i32 }
%struct.InputStream = type { ptr, ptr, i32, ptr, i32, ptr, ptr, ptr, %struct.AVRational, i32, i32, ptr, i32 }
%struct.InputFile = type { ptr, i32, ptr, i64, i32, i64, i64, i64, ptr, i32 }
%struct.AVStream = type { ptr, i32, i32, ptr, ptr, %struct.AVRational, i64, i64, i64, i32, i32, %struct.AVRational, ptr, %struct.AVRational, %struct.AVPacket, i32, %struct.AVRational, i32 }
%struct.AVPacket = type { ptr, i64, i64, ptr, i32, i32, i32, ptr, i32, i64, i64, ptr, ptr, %struct.AVRational }
%struct.AVChannelLayout = type { i32, i32, %union.anon, ptr }
%union.anon = type { i64 }
%struct.AVCodecParameters = type { i32, i32, i32, ptr, i32, ptr, i32, i32, i64, i32, i32, i32, i32, i32, i32, %struct.AVRational, %struct.AVRational, i32, i32, i32, i32, i32, i32, i32, %struct.AVChannelLayout, i32, i32, i32, i32, i32, i32 }

@nb_input_files = external global i32, align 4
@input_files = external global ptr, align 8

; Function Attrs: nounwind uwtable
define internal i32 @map_auto_video(ptr noundef %0, ptr noundef %1) #0 {
  %3 = alloca i32, align 4
  %4 = alloca ptr, align 8
  %5 = alloca ptr, align 8
  %6 = alloca ptr, align 8
  %7 = alloca ptr, align 8
  %8 = alloca i32, align 4
  %9 = alloca i32, align 4
  %10 = alloca i32, align 4
  %11 = alloca i32, align 4
  %12 = alloca ptr, align 8
  %13 = alloca ptr, align 8
  %14 = alloca i32, align 4
  %15 = alloca i32, align 4
  %16 = alloca ptr, align 8
  %17 = alloca i32, align 4
  store ptr %0, ptr %4, align 8, !tbaa !34
  store ptr %1, ptr %5, align 8, !tbaa !13
  call void @llvm.lifetime.start.p0(i64 8, ptr %6) #12
  %18 = load ptr, ptr %4, align 8, !tbaa !34
  %19 = getelementptr inbounds nuw %struct.Muxer, ptr %18, i32 0, i32 2
  %20 = load ptr, ptr %19, align 8, !tbaa !58
  store ptr %20, ptr %6, align 8, !tbaa !57
  call void @llvm.lifetime.start.p0(i64 8, ptr %7) #12
  store ptr null, ptr %7, align 8, !tbaa !255
  call void @llvm.lifetime.start.p0(i64 4, ptr %8) #12
  store i32 0, ptr %8, align 4, !tbaa !4
  call void @llvm.lifetime.start.p0(i64 4, ptr %9) #12
  %21 = load ptr, ptr %6, align 8, !tbaa !57
  %22 = getelementptr inbounds nuw %struct.AVFormatContext, ptr %21, i32 0, i32 2
  %23 = load ptr, ptr %22, align 8, !tbaa !59
  %24 = load ptr, ptr %6, align 8, !tbaa !57
  %25 = getelementptr inbounds nuw %struct.AVFormatContext, ptr %24, i32 0, i32 12
  %26 = load ptr, ptr %25, align 8, !tbaa !86
  %27 = call i32 @av_guess_codec(ptr noundef %23, ptr noundef null, ptr noundef %26, ptr noundef null, i32 noundef 0)
  %28 = icmp eq i32 %27, 0
  br i1 %28, label %29, label %30

29:                                               ; preds = %2
  store i32 0, ptr %3, align 4
  store i32 1, ptr %10, align 4
  br label %206

30:                                               ; preds = %2
  %31 = load ptr, ptr %6, align 8, !tbaa !57
  %32 = getelementptr inbounds nuw %struct.AVFormatContext, ptr %31, i32 0, i32 2
  %33 = load ptr, ptr %32, align 8, !tbaa !59
  %34 = load ptr, ptr %6, align 8, !tbaa !57
  %35 = getelementptr inbounds nuw %struct.AVFormatContext, ptr %34, i32 0, i32 2
  %36 = load ptr, ptr %35, align 8, !tbaa !59
  %37 = getelementptr inbounds nuw %struct.AVOutputFormat, ptr %36, i32 0, i32 5
  %38 = load i32, ptr %37, align 4, !tbaa !256
  %39 = call i32 @avformat_query_codec(ptr noundef %33, i32 noundef %38, i32 noundef 0)
  store i32 %39, ptr %9, align 4, !tbaa !4
  call void @llvm.lifetime.start.p0(i64 4, ptr %11) #12
  store i32 0, ptr %11, align 4, !tbaa !4
  br label %40

40:                                               ; preds = %194, %30
  %41 = load i32, ptr %11, align 4, !tbaa !4
  %42 = load i32, ptr @nb_input_files, align 4, !tbaa !4
  %43 = icmp slt i32 %41, %42
  br i1 %43, label %45, label %44

44:                                               ; preds = %40
  store i32 2, ptr %10, align 4
  call void @llvm.lifetime.end.p0(i64 4, ptr %11) #12
  br label %197

45:                                               ; preds = %40
  call void @llvm.lifetime.start.p0(i64 8, ptr %12) #12
  %46 = load ptr, ptr @input_files, align 8, !tbaa !176
  %47 = load i32, ptr %11, align 4, !tbaa !4
  %48 = sext i32 %47 to i64
  %49 = getelementptr inbounds ptr, ptr %46, i64 %48
  %50 = load ptr, ptr %49, align 8, !tbaa !178
  store ptr %50, ptr %12, align 8, !tbaa !178
  call void @llvm.lifetime.start.p0(i64 8, ptr %13) #12
  store ptr null, ptr %13, align 8, !tbaa !255
  call void @llvm.lifetime.start.p0(i64 4, ptr %14) #12
  store i32 0, ptr %14, align 4, !tbaa !4
  call void @llvm.lifetime.start.p0(i64 4, ptr %15) #12
  store i32 0, ptr %15, align 4, !tbaa !4
  br label %51

51:                                               ; preds = %154, %45
  %52 = load i32, ptr %15, align 4, !tbaa !4
  %53 = load ptr, ptr %12, align 8, !tbaa !178
  %54 = getelementptr inbounds nuw %struct.InputFile, ptr %53, i32 0, i32 9
  %55 = load i32, ptr %54, align 8, !tbaa !257
  %56 = icmp slt i32 %52, %55
  br i1 %56, label %58, label %57

57:                                               ; preds = %51
  store i32 5, ptr %10, align 4
  call void @llvm.lifetime.end.p0(i64 4, ptr %15) #12
  br label %157

58:                                               ; preds = %51
  call void @llvm.lifetime.start.p0(i64 8, ptr %16) #12
  %59 = load ptr, ptr %12, align 8, !tbaa !178
  %60 = getelementptr inbounds nuw %struct.InputFile, ptr %59, i32 0, i32 8
  %61 = load ptr, ptr %60, align 8, !tbaa !258
  %62 = load i32, ptr %15, align 4, !tbaa !4
  %63 = sext i32 %62 to i64
  %64 = getelementptr inbounds ptr, ptr %61, i64 %63
  %65 = load ptr, ptr %64, align 8, !tbaa !255
  store ptr %65, ptr %16, align 8, !tbaa !255
  call void @llvm.lifetime.start.p0(i64 4, ptr %17) #12
  %66 = load ptr, ptr %16, align 8, !tbaa !255
  %67 = getelementptr inbounds nuw %struct.InputStream, ptr %66, i32 0, i32 4
  %68 = load i32, ptr %67, align 8, !tbaa !259
  %69 = icmp eq i32 %68, 48
  br i1 %69, label %79, label %70

70:                                               ; preds = %58
  %71 = load ptr, ptr %16, align 8, !tbaa !255
  %72 = getelementptr inbounds nuw %struct.InputStream, ptr %71, i32 0, i32 3
  %73 = load ptr, ptr %72, align 8, !tbaa !191
  %74 = getelementptr inbounds nuw %struct.AVStream, ptr %73, i32 0, i32 3
  %75 = load ptr, ptr %74, align 8, !tbaa !260
  %76 = getelementptr inbounds nuw %struct.AVCodecParameters, ptr %75, i32 0, i32 0
  %77 = load i32, ptr %76, align 8, !tbaa !261
  %78 = icmp ne i32 %77, 0
  br i1 %78, label %79, label %80

79:                                               ; preds = %70, %58
  store i32 7, ptr %10, align 4
  br label %151

80:                                               ; preds = %70
  %81 = load ptr, ptr %16, align 8, !tbaa !255
  %82 = getelementptr inbounds nuw %struct.InputStream, ptr %81, i32 0, i32 3
  %83 = load ptr, ptr %82, align 8, !tbaa !191
  %84 = getelementptr inbounds nuw %struct.AVStream, ptr %83, i32 0, i32 3
  %85 = load ptr, ptr %84, align 8, !tbaa !260
  %86 = getelementptr inbounds nuw %struct.AVCodecParameters, ptr %85, i32 0, i32 13
  %87 = load i32, ptr %86, align 8, !tbaa !263
  %88 = load ptr, ptr %16, align 8, !tbaa !255
  %89 = getelementptr inbounds nuw %struct.InputStream, ptr %88, i32 0, i32 3
  %90 = load ptr, ptr %89, align 8, !tbaa !191
  %91 = getelementptr inbounds nuw %struct.AVStream, ptr %90, i32 0, i32 3
  %92 = load ptr, ptr %91, align 8, !tbaa !260
  %93 = getelementptr inbounds nuw %struct.AVCodecParameters, ptr %92, i32 0, i32 14
  %94 = load i32, ptr %93, align 4, !tbaa !264
  %95 = mul nsw i32 %87, %94
  %96 = load ptr, ptr %16, align 8, !tbaa !255
  %97 = getelementptr inbounds nuw %struct.InputStream, ptr %96, i32 0, i32 3
  %98 = load ptr, ptr %97, align 8, !tbaa !191
  %99 = getelementptr inbounds nuw %struct.AVStream, ptr %98, i32 0, i32 15
  %100 = load i32, ptr %99, align 8, !tbaa !265
  %101 = and i32 %100, 2
  %102 = icmp ne i32 %101, 0
  %103 = xor i1 %102, true
  %104 = xor i1 %103, true
  %105 = zext i1 %104 to i32
  %106 = mul nsw i32 100000000, %105
  %107 = add nsw i32 %95, %106
  %108 = load ptr, ptr %16, align 8, !tbaa !255
  %109 = getelementptr inbounds nuw %struct.InputStream, ptr %108, i32 0, i32 3
  %110 = load ptr, ptr %109, align 8, !tbaa !191
  %111 = getelementptr inbounds nuw %struct.AVStream, ptr %110, i32 0, i32 9
  %112 = load i32, ptr %111, align 8, !tbaa !223
  %113 = and i32 %112, 1
  %114 = icmp ne i32 %113, 0
  %115 = xor i1 %114, true
  %116 = xor i1 %115, true
  %117 = zext i1 %116 to i32
  %118 = mul nsw i32 5000000, %117
  %119 = add nsw i32 %107, %118
  store i32 %119, ptr %17, align 4, !tbaa !4
  %120 = load i32, ptr %9, align 4, !tbaa !4
  %121 = icmp ne i32 %120, 1128878145
  br i1 %121, label %122, label %131

122:                                              ; preds = %80
  %123 = load ptr, ptr %16, align 8, !tbaa !255
  %124 = getelementptr inbounds nuw %struct.InputStream, ptr %123, i32 0, i32 3
  %125 = load ptr, ptr %124, align 8, !tbaa !191
  %126 = getelementptr inbounds nuw %struct.AVStream, ptr %125, i32 0, i32 9
  %127 = load i32, ptr %126, align 8, !tbaa !223
  %128 = and i32 %127, 1024
  %129 = icmp ne i32 %128, 0
  br i1 %129, label %130, label %131

130:                                              ; preds = %122
  store i32 1, ptr %17, align 4, !tbaa !4
  br label %131

131:                                              ; preds = %130, %122, %80
  %132 = load i32, ptr %17, align 4, !tbaa !4
  %133 = load i32, ptr %14, align 4, !tbaa !4
  %134 = icmp sgt i32 %132, %133
  br i1 %134, label %135, label %150

135:                                              ; preds = %131
  %136 = load i32, ptr %9, align 4, !tbaa !4
  %137 = icmp eq i32 %136, 1128878145
  br i1 %137, label %138, label %147

138:                                              ; preds = %135
  %139 = load ptr, ptr %16, align 8, !tbaa !255
  %140 = getelementptr inbounds nuw %struct.InputStream, ptr %139, i32 0, i32 3
  %141 = load ptr, ptr %140, align 8, !tbaa !191
  %142 = getelementptr inbounds nuw %struct.AVStream, ptr %141, i32 0, i32 9
  %143 = load i32, ptr %142, align 8, !tbaa !223
  %144 = and i32 %143, 1024
  %145 = icmp ne i32 %144, 0
  br i1 %145, label %147, label %146

146:                                              ; preds = %138
  store i32 7, ptr %10, align 4
  br label %151

147:                                              ; preds = %138, %135
  %148 = load i32, ptr %17, align 4, !tbaa !4
  store i32 %148, ptr %14, align 4, !tbaa !4
  %149 = load ptr, ptr %16, align 8, !tbaa !255
  store ptr %149, ptr %13, align 8, !tbaa !255
  br label %150

150:                                              ; preds = %147, %131
  store i32 0, ptr %10, align 4
  br label %151

151:                                              ; preds = %150, %146, %79
  call void @llvm.lifetime.end.p0(i64 4, ptr %17) #12
  call void @llvm.lifetime.end.p0(i64 8, ptr %16) #12
  %152 = load i32, ptr %10, align 4
  switch i32 %152, label %208 [
    i32 0, label %153
    i32 7, label %154
  ]

153:                                              ; preds = %151
  br label %154

154:                                              ; preds = %153, %151
  %155 = load i32, ptr %15, align 4, !tbaa !4
  %156 = add nsw i32 %155, 1
  store i32 %156, ptr %15, align 4, !tbaa !4
  br label %51, !llvm.loop !266

157:                                              ; preds = %57
  %158 = load ptr, ptr %13, align 8, !tbaa !255
  %159 = icmp ne ptr %158, null
  br i1 %159, label %160, label %193

160:                                              ; preds = %157
  %161 = load i32, ptr %9, align 4, !tbaa !4
  %162 = icmp eq i32 %161, 1128878145
  br i1 %162, label %171, label %163

163:                                              ; preds = %160
  %164 = load ptr, ptr %13, align 8, !tbaa !255
  %165 = getelementptr inbounds nuw %struct.InputStream, ptr %164, i32 0, i32 3
  %166 = load ptr, ptr %165, align 8, !tbaa !191
  %167 = getelementptr inbounds nuw %struct.AVStream, ptr %166, i32 0, i32 9
  %168 = load i32, ptr %167, align 8, !tbaa !223
  %169 = and i32 %168, 1024
  %170 = icmp ne i32 %169, 0
  br i1 %170, label %185, label %171

171:                                              ; preds = %163, %160
  %172 = load ptr, ptr %13, align 8, !tbaa !255
  %173 = getelementptr inbounds nuw %struct.InputStream, ptr %172, i32 0, i32 3
  %174 = load ptr, ptr %173, align 8, !tbaa !191
  %175 = getelementptr inbounds nuw %struct.AVStream, ptr %174, i32 0, i32 9
  %176 = load i32, ptr %175, align 8, !tbaa !223
  %177 = and i32 %176, 1
  %178 = icmp ne i32 %177, 0
  %179 = xor i1 %178, true
  %180 = xor i1 %179, true
  %181 = zext i1 %180 to i32
  %182 = mul nsw i32 5000000, %181
  %183 = load i32, ptr %14, align 4, !tbaa !4
  %184 = sub nsw i32 %183, %182
  store i32 %184, ptr %14, align 4, !tbaa !4
  br label %185

185:                                              ; preds = %171, %163
  %186 = load i32, ptr %14, align 4, !tbaa !4
  %187 = load i32, ptr %8, align 4, !tbaa !4
  %188 = icmp sgt i32 %186, %187
  br i1 %188, label %189, label %192

189:                                              ; preds = %185
  %190 = load i32, ptr %14, align 4, !tbaa !4
  store i32 %190, ptr %8, align 4, !tbaa !4
  %191 = load ptr, ptr %13, align 8, !tbaa !255
  store ptr %191, ptr %7, align 8, !tbaa !255
  br label %192

192:                                              ; preds = %189, %185
  br label %193

193:                                              ; preds = %192, %157
  call void @llvm.lifetime.end.p0(i64 4, ptr %14) #12
  call void @llvm.lifetime.end.p0(i64 8, ptr %13) #12
  call void @llvm.lifetime.end.p0(i64 8, ptr %12) #12
  br label %194

194:                                              ; preds = %193
  %195 = load i32, ptr %11, align 4, !tbaa !4
  %196 = add nsw i32 %195, 1
  store i32 %196, ptr %11, align 4, !tbaa !4
  br label %40, !llvm.loop !267

197:                                              ; preds = %44
  %198 = load ptr, ptr %7, align 8, !tbaa !255
  %199 = icmp ne ptr %198, null
  br i1 %199, label %200, label %205

200:                                              ; preds = %197
  %201 = load ptr, ptr %4, align 8, !tbaa !34
  %202 = load ptr, ptr %5, align 8, !tbaa !13
  %203 = load ptr, ptr %7, align 8, !tbaa !255
  %204 = call i32 @ost_add(ptr noundef %201, ptr noundef %202, i32 noundef 0, ptr noundef %203, ptr noundef null, ptr noundef null, ptr noundef null)
  store i32 %204, ptr %3, align 4
  store i32 1, ptr %10, align 4
  br label %206

205:                                              ; preds = %197
  store i32 0, ptr %3, align 4
  store i32 1, ptr %10, align 4
  br label %206

206:                                              ; preds = %205, %200, %29
  call void @llvm.lifetime.end.p0(i64 4, ptr %9) #12
  call void @llvm.lifetime.end.p0(i64 4, ptr %8) #12
  call void @llvm.lifetime.end.p0(i64 8, ptr %7) #12
  call void @llvm.lifetime.end.p0(i64 8, ptr %6) #12
  %207 = load i32, ptr %3, align 4
  ret i32 %207

208:                                              ; preds = %151
  unreachable
}