; Function Attrs: nounwind uwtable
define internal i32 @map_auto_video(ptr noundef %0, ptr noundef %1) #0 {
  %3 = getelementptr inbounds nuw i8, ptr %0, i64 96
  %4 = load ptr, ptr %3, align 8, !tbaa !51
  %5 = getelementptr inbounds nuw i8, ptr %4, i64 16
  %6 = load ptr, ptr %5, align 8, !tbaa !52
  %7 = getelementptr inbounds nuw i8, ptr %4, i64 88
  %8 = load ptr, ptr %7, align 8, !tbaa !181
  %9 = tail call i32 @av_guess_codec(ptr noundef %6, ptr noundef null, ptr noundef %8, ptr noundef null, i32 noundef 0) #16
  %10 = icmp eq i32 %9, 0
  br i1 %10, label %._crit_edge73.thread, label %11

11:                                               ; preds = %2
  %12 = load ptr, ptr %5, align 8, !tbaa !52
  %13 = getelementptr inbounds nuw i8, ptr %12, i64 36
  %14 = load i32, ptr %13, align 4, !tbaa !344
  %15 = tail call i32 @avformat_query_codec(ptr noundef %12, i32 noundef %14, i32 noundef 0) #16
  %16 = load i32, ptr @nb_input_files, align 4, !tbaa !4
  %17 = icmp sgt i32 %16, 0
  br i1 %17, label %.lr.ph72, label %._crit_edge73.thread

.lr.ph72:                                         ; preds = %11
  %.fr = freeze i32 %15
  %18 = load ptr, ptr @input_files, align 8, !tbaa !110
  %.not55 = icmp eq i32 %.fr, 1128878145
  %wide.trip.count105 = zext nneg i32 %16 to i64
  br i1 %.not55, label %.lr.ph72.split.us, label %.lr.ph72.split

.lr.ph72.split.us:                                ; preds = %.lr.ph72, %._crit_edge.split.us85.thread
  %indvars.iv102 = phi i64 [ %indvars.iv.next103, %._crit_edge.split.us85.thread ], [ 0, %.lr.ph72 ]
  %.04670.us = phi ptr [ %.147.us, %._crit_edge.split.us85.thread ], [ null, %.lr.ph72 ]
  %.04968.us = phi i32 [ %.150.us, %._crit_edge.split.us85.thread ], [ 0, %.lr.ph72 ]
  %19 = getelementptr inbounds nuw ptr, ptr %18, i64 %indvars.iv102
  %20 = load ptr, ptr %19, align 8, !tbaa !113
  %21 = getelementptr inbounds nuw i8, ptr %20, i64 72
  %22 = load i32, ptr %21, align 8, !tbaa !345
  %23 = icmp sgt i32 %22, 0
  br i1 %23, label %.lr.ph.us, label %._crit_edge.split.us85.thread

._crit_edge.split.us85:                           ; preds = %58
  %.not51.us = icmp eq ptr %.144.us83, null
  br i1 %.not51.us, label %._crit_edge.split.us85.thread, label %._crit_edge109

._crit_edge109:                                   ; preds = %._crit_edge.split.us85
  %.phi.trans.insert110 = getelementptr inbounds nuw i8, ptr %.144.us83, i64 24
  %.pre111 = load ptr, ptr %.phi.trans.insert110, align 8, !tbaa !127
  %.phi.trans.insert112 = getelementptr inbounds nuw i8, ptr %.pre111, i64 64
  %.pre113 = load i32, ptr %.phi.trans.insert112, align 8, !tbaa !306
  %24 = trunc i32 %.pre113 to i1
  %.neg.us = select i1 %24, i32 -5000000, i32 0
  %25 = add i32 %.neg.us, %.1.us84
  %26 = icmp sgt i32 %25, %.04968.us
  %spec.select.us = tail call i32 @llvm.smax.i32(i32 %25, i32 %.04968.us)
  %spec.select58.us = select i1 %26, ptr %.144.us83, ptr %.04670.us
  br label %._crit_edge.split.us85.thread

._crit_edge.split.us85.thread:                    ; preds = %.lr.ph72.split.us, %._crit_edge109, %._crit_edge.split.us85
  %.150.us = phi i32 [ %.04968.us, %._crit_edge.split.us85 ], [ %spec.select.us, %._crit_edge109 ], [ %.04968.us, %.lr.ph72.split.us ]
  %.147.us = phi ptr [ %.04670.us, %._crit_edge.split.us85 ], [ %spec.select58.us, %._crit_edge109 ], [ %.04670.us, %.lr.ph72.split.us ]
  %indvars.iv.next103 = add nuw nsw i64 %indvars.iv102, 1
  %exitcond106.not = icmp eq i64 %indvars.iv.next103, %wide.trip.count105
  br i1 %exitcond106.not, label %._crit_edge73, label %.lr.ph72.split.us, !llvm.loop !346

27:                                               ; preds = %.lr.ph.us, %58
  %indvars.iv97 = phi i64 [ 0, %.lr.ph.us ], [ %indvars.iv.next98, %58 ]
  %.04264.us76 = phi i32 [ 0, %.lr.ph.us ], [ %.1.us84, %58 ]
  %.04363.us77 = phi ptr [ null, %.lr.ph.us ], [ %.144.us83, %58 ]
  %28 = getelementptr inbounds nuw ptr, ptr %60, i64 %indvars.iv97
  %29 = load ptr, ptr %28, align 8, !tbaa !119
  %30 = getelementptr inbounds nuw i8, ptr %29, i64 32
  %31 = load i32, ptr %30, align 8, !tbaa !121
  %32 = icmp eq i32 %31, 48
  br i1 %32, label %58, label %33

33:                                               ; preds = %27
  %34 = getelementptr inbounds nuw i8, ptr %29, i64 24
  %35 = load ptr, ptr %34, align 8, !tbaa !127
  %36 = getelementptr inbounds nuw i8, ptr %35, i64 16
  %37 = load ptr, ptr %36, align 8, !tbaa !128
  %38 = load i32, ptr %37, align 8, !tbaa !133
  %.not53.us78 = icmp eq i32 %38, 0
  br i1 %.not53.us78, label %39, label %58

39:                                               ; preds = %33
  %40 = getelementptr inbounds nuw i8, ptr %37, i64 72
  %41 = load i32, ptr %40, align 8, !tbaa !347
  %42 = getelementptr inbounds nuw i8, ptr %37, i64 76
  %43 = load i32, ptr %42, align 4, !tbaa !348
  %44 = mul nsw i32 %43, %41
  %45 = getelementptr inbounds nuw i8, ptr %35, i64 200
  %46 = load i32, ptr %45, align 8, !tbaa !349
  %47 = and i32 %46, 2
  %.not54.us79 = icmp eq i32 %47, 0
  %48 = select i1 %.not54.us79, i32 0, i32 100000000
  %49 = add nsw i32 %48, %44
  %50 = getelementptr inbounds nuw i8, ptr %35, i64 64
  %51 = load i32, ptr %50, align 8, !tbaa !306
  %52 = trunc i32 %51 to i1
  %53 = select i1 %52, i32 5000000, i32 0
  %54 = add nsw i32 %49, %53
  %55 = icmp sgt i32 %54, %.04264.us76
  %.042.mux.us82 = tail call i32 @llvm.smax.i32(i32 %54, i32 %.04264.us76)
  br i1 %55, label %56, label %58

56:                                               ; preds = %39
  %57 = and i32 %51, 1024
  %.not56.us80 = icmp eq i32 %57, 0
  %spec.select59.us = select i1 %.not56.us80, ptr %.04363.us77, ptr %29
  %spec.select60.us = select i1 %.not56.us80, i32 %.04264.us76, i32 %54
  br label %58

58:                                               ; preds = %56, %39, %33, %27
  %.144.us83 = phi ptr [ %.04363.us77, %33 ], [ %.04363.us77, %27 ], [ %.04363.us77, %39 ], [ %spec.select59.us, %56 ]
  %.1.us84 = phi i32 [ %.04264.us76, %33 ], [ %.04264.us76, %27 ], [ %.042.mux.us82, %39 ], [ %spec.select60.us, %56 ]
  %indvars.iv.next98 = add nuw nsw i64 %indvars.iv97, 1
  %exitcond101.not = icmp eq i64 %indvars.iv.next98, %wide.trip.count100
  br i1 %exitcond101.not, label %._crit_edge.split.us85, label %27, !llvm.loop !350

.lr.ph.us:                                        ; preds = %.lr.ph72.split.us
  %59 = getelementptr inbounds nuw i8, ptr %20, i64 64
  %60 = load ptr, ptr %59, align 8, !tbaa !115
  %wide.trip.count100 = zext nneg i32 %22 to i64
  br label %27

._crit_edge73:                                    ; preds = %._crit_edge.split.us.thread, %._crit_edge.split.us85.thread
  %.046.lcssa = phi ptr [ %.147.us, %._crit_edge.split.us85.thread ], [ %.147, %._crit_edge.split.us.thread ]
  %.not = icmp eq ptr %.046.lcssa, null
  br i1 %.not, label %._crit_edge73.thread, label %108

.lr.ph72.split:                                   ; preds = %.lr.ph72, %._crit_edge.split.us.thread
  %indvars.iv92 = phi i64 [ %indvars.iv.next93, %._crit_edge.split.us.thread ], [ 0, %.lr.ph72 ]
  %.04670 = phi ptr [ %.147, %._crit_edge.split.us.thread ], [ null, %.lr.ph72 ]
  %.04968 = phi i32 [ %.150, %._crit_edge.split.us.thread ], [ 0, %.lr.ph72 ]
  %61 = getelementptr inbounds nuw ptr, ptr %18, i64 %indvars.iv92
  %62 = load ptr, ptr %61, align 8, !tbaa !113
  %63 = getelementptr inbounds nuw i8, ptr %62, i64 72
  %64 = load i32, ptr %63, align 8, !tbaa !345
  %65 = icmp sgt i32 %64, 0
  br i1 %65, label %.lr.ph, label %._crit_edge.split.us.thread

.lr.ph:                                           ; preds = %.lr.ph72.split
  %66 = getelementptr inbounds nuw i8, ptr %62, i64 64
  %67 = load ptr, ptr %66, align 8, !tbaa !115
  %wide.trip.count = zext nneg i32 %64 to i64
  br label %68

68:                                               ; preds = %98, %.lr.ph
  %indvars.iv = phi i64 [ %indvars.iv.next, %98 ], [ 0, %.lr.ph ]
  %.04264.us = phi i32 [ %.1.us, %98 ], [ 0, %.lr.ph ]
  %.04363.us = phi ptr [ %.144.us, %98 ], [ null, %.lr.ph ]
  %69 = getelementptr inbounds nuw ptr, ptr %67, i64 %indvars.iv
  %70 = load ptr, ptr %69, align 8, !tbaa !119
  %71 = getelementptr inbounds nuw i8, ptr %70, i64 32
  %72 = load i32, ptr %71, align 8, !tbaa !121
  %73 = icmp eq i32 %72, 48
  br i1 %73, label %98, label %74

74:                                               ; preds = %68
  %75 = getelementptr inbounds nuw i8, ptr %70, i64 24
  %76 = load ptr, ptr %75, align 8, !tbaa !127
  %77 = getelementptr inbounds nuw i8, ptr %76, i64 16
  %78 = load ptr, ptr %77, align 8, !tbaa !128
  %79 = load i32, ptr %78, align 8, !tbaa !133
  %.not53.us = icmp eq i32 %79, 0
  br i1 %.not53.us, label %80, label %98

80:                                               ; preds = %74
  %81 = getelementptr inbounds nuw i8, ptr %78, i64 72
  %82 = load i32, ptr %81, align 8, !tbaa !347
  %83 = getelementptr inbounds nuw i8, ptr %78, i64 76
  %84 = load i32, ptr %83, align 4, !tbaa !348
  %85 = mul nsw i32 %84, %82
  %86 = getelementptr inbounds nuw i8, ptr %76, i64 200
  %87 = load i32, ptr %86, align 8, !tbaa !349
  %88 = and i32 %87, 2
  %.not54.us = icmp eq i32 %88, 0
  %89 = select i1 %.not54.us, i32 0, i32 100000000
  %90 = add nsw i32 %89, %85
  %91 = getelementptr inbounds nuw i8, ptr %76, i64 64
  %92 = load i32, ptr %91, align 8, !tbaa !306
  %93 = trunc i32 %92 to i1
  %94 = select i1 %93, i32 5000000, i32 0
  %95 = add nsw i32 %90, %94
  %96 = and i32 %92, 1024
  %.not56.us = icmp eq i32 %96, 0
  %.0.us = select i1 %.not56.us, i32 %95, i32 1
  %97 = icmp sgt i32 %.0.us, %.04264.us
  %.043.mux.us = select i1 %97, ptr %70, ptr %.04363.us
  %.042.mux.us = tail call i32 @llvm.smax.i32(i32 %.0.us, i32 %.04264.us)
  br label %98

98:                                               ; preds = %80, %74, %68
  %.144.us = phi ptr [ %.04363.us, %74 ], [ %.04363.us, %68 ], [ %.043.mux.us, %80 ]
  %.1.us = phi i32 [ %.04264.us, %74 ], [ %.04264.us, %68 ], [ %.042.mux.us, %80 ]
  %indvars.iv.next = add nuw nsw i64 %indvars.iv, 1
  %exitcond.not = icmp eq i64 %indvars.iv.next, %wide.trip.count
  br i1 %exitcond.not, label %._crit_edge.split.us, label %68, !llvm.loop !350

._crit_edge.split.us:                             ; preds = %98
  %.not51 = icmp eq ptr %.144.us, null
  br i1 %.not51, label %._crit_edge.split.us.thread, label %99

99:                                               ; preds = %._crit_edge.split.us
  %100 = getelementptr inbounds nuw i8, ptr %.144.us, i64 24
  %101 = load ptr, ptr %100, align 8, !tbaa !127
  %102 = getelementptr inbounds nuw i8, ptr %101, i64 64
  %103 = load i32, ptr %102, align 8, !tbaa !306
  %104 = and i32 %103, 1025
  %105 = icmp eq i32 %104, 1
  %106 = select i1 %105, i32 -5000000, i32 0
  %.3 = add nsw i32 %.1.us, %106
  %107 = icmp sgt i32 %.3, %.04968
  %spec.select = tail call i32 @llvm.smax.i32(i32 %.3, i32 %.04968)
  %spec.select58 = select i1 %107, ptr %.144.us, ptr %.04670
  br label %._crit_edge.split.us.thread

._crit_edge.split.us.thread:                      ; preds = %.lr.ph72.split, %99, %._crit_edge.split.us
  %.150 = phi i32 [ %.04968, %._crit_edge.split.us ], [ %spec.select, %99 ], [ %.04968, %.lr.ph72.split ]
  %.147 = phi ptr [ %.04670, %._crit_edge.split.us ], [ %spec.select58, %99 ], [ %.04670, %.lr.ph72.split ]
  %indvars.iv.next93 = add nuw nsw i64 %indvars.iv92, 1
  %exitcond96.not = icmp eq i64 %indvars.iv.next93, %wide.trip.count105
  br i1 %exitcond96.not, label %._crit_edge73, label %.lr.ph72.split, !llvm.loop !346

108:                                              ; preds = %._crit_edge73
  %109 = tail call fastcc i32 @ost_add(ptr noundef %0, ptr noundef %1, i32 noundef 0, ptr noundef nonnull %.046.lcssa, ptr noundef null, ptr noundef null, ptr noundef null)
  br label %._crit_edge73.thread

._crit_edge73.thread:                             ; preds = %11, %._crit_edge73, %2, %108
  %.040 = phi i32 [ %109, %108 ], [ 0, %2 ], [ 0, %._crit_edge73 ], [ 0, %11 ]
  ret i32 %.040
}